target datalayout = "e-m:e-p270:32:32-p271:32:32-p272:64:64-i64:64-i128:128-f80:128-n8:16:32:64-S128"
target triple = "x86_64-pc-linux-gnu"

%struct.dt_pthread_mutex_t = type { %union.pthread_mutex_t }
%union.pthread_mutex_t = type { %struct.__pthread_mutex_s }
%struct.__pthread_mutex_s = type { i32, i32, i32, i32, i32, i16, i16, %struct.__pthread_internal_list }
%struct.__pthread_internal_list = type { ptr, ptr }
%struct.dt_gui_presets_edit_dialog_t = type { ptr, ptr, ptr, ptr, i32, ptr, ptr, ptr, ptr, ptr, ptr, ptr, ptr, ptr, ptr, ptr, ptr, ptr, ptr, ptr, ptr, ptr, ptr, ptr, ptr, i32, [5 x ptr], ptr, ptr }
%struct.dt_iop_module_t = type { i32, ptr, ptr, ptr, ptr, ptr, ptr, ptr, ptr, ptr, ptr, ptr, ptr, ptr, ptr, ptr, ptr, ptr, ptr, ptr, ptr, ptr, ptr, ptr, ptr, ptr, ptr, ptr, ptr, ptr, ptr, ptr, ptr, ptr, ptr, ptr, ptr, ptr, ptr, ptr, ptr, ptr, ptr, ptr, ptr, ptr, ptr, ptr, ptr, ptr, ptr, ptr, ptr, ptr, ptr, ptr, ptr, [20 x i8], i32, i32, i32, i32, i32, i32, i32, [8 x i8], [4 x float], [4 x float], [4 x float], [4 x float], [4 x float], [4 x float], ptr, %struct.dt_dev_histogram_stats_t, [4 x i32], i32, i32, ptr, i32, i32, ptr, ptr, i32, ptr, %struct.dt_pthread_mutex_t, ptr, ptr, ptr, ptr, %struct.anon.4, ptr, ptr, ptr, ptr, ptr, ptr, ptr, i32, ptr, ptr, ptr, ptr, ptr, ptr, ptr, i32, ptr, i32, [128 x i8], i32, ptr, ptr, i32, [12 x i8] }
%struct.dt_dev_histogram_stats_t = type { i32, i64, i32, i32 }
%struct.anon.4 = type { %struct.anon.5, %struct.anon.6 }
%struct.anon.5 = type { ptr, ptr }
%struct.anon.6 = type { ptr, i32 }

; Function Attrs: nounwind uwtable
define void @dt_gui_presets_show_iop_edit_dialog(ptr noundef %0, ptr noundef %1, ptr noundef %2, ptr noundef %3, i32 noundef %4, i32 noundef %5, i32 noundef %6, ptr noundef %7) #0 {
  %9 = alloca ptr, align 8
  %10 = alloca ptr, align 8
  %11 = alloca ptr, align 8
  %12 = alloca ptr, align 8
  %13 = alloca i32, align 4
  %14 = alloca i32, align 4
  %15 = alloca i32, align 4
  %16 = alloca ptr, align 8
  %17 = alloca ptr, align 8
  store ptr %0, ptr %9, align 8, !tbaa !11
  store ptr %1, ptr %10, align 8, !tbaa !83
  store ptr %2, ptr %11, align 8, !tbaa !17
  store ptr %3, ptr %12, align 8, !tbaa !17
  store i32 %4, ptr %13, align 4, !tbaa !13
  store i32 %5, ptr %14, align 4, !tbaa !13
  store i32 %6, ptr %15, align 4, !tbaa !13
  store ptr %7, ptr %16, align 8, !tbaa !85
  call void @llvm.lifetime.start.p0(i64 8, ptr %17) #11
  %18 = call noalias ptr @g_malloc0(i64 noundef 264) #13
  store ptr %18, ptr %17, align 8, !tbaa !87
  %19 = load ptr, ptr %17, align 8, !tbaa !87
  %20 = getelementptr inbounds nuw %struct.dt_gui_presets_edit_dialog_t, ptr %19, i32 0, i32 25
  store i32 -1, ptr %20, align 8, !tbaa !89
  %21 = load ptr, ptr %9, align 8, !tbaa !11
  %22 = call noalias ptr @g_strdup(ptr noundef %21)
  %23 = load ptr, ptr %17, align 8, !tbaa !87
  %24 = getelementptr inbounds nuw %struct.dt_gui_presets_edit_dialog_t, ptr %23, i32 0, i32 24
  store ptr %22, ptr %24, align 8, !tbaa !94
  %25 = load ptr, ptr %10, align 8, !tbaa !83
  %26 = load ptr, ptr %17, align 8, !tbaa !87
  %27 = getelementptr inbounds nuw %struct.dt_gui_presets_edit_dialog_t, ptr %26, i32 0, i32 1
  store ptr %25, ptr %27, align 8, !tbaa !95
  %28 = load ptr, ptr %10, align 8, !tbaa !83
  %29 = getelementptr inbounds nuw %struct.dt_iop_module_t, ptr %28, i32 0, i32 57
  %30 = getelementptr inbounds [20 x i8], ptr %29, i64 0, i64 0
  %31 = call noalias ptr @g_strdup(ptr noundef %30)
  %32 = load ptr, ptr %17, align 8, !tbaa !87
  %33 = getelementptr inbounds nuw %struct.dt_gui_presets_edit_dialog_t, ptr %32, i32 0, i32 3
  store ptr %31, ptr %33, align 8, !tbaa !96
  %34 = load ptr, ptr %10, align 8, !tbaa !83
  %35 = getelementptr inbounds nuw %struct.dt_iop_module_t, ptr %34, i32 0, i32 1
  %36 = load ptr, ptr %35, align 8, !tbaa !97
  %37 = call i32 (...) %36()
  %38 = load ptr, ptr %17, align 8, !tbaa !87
  %39 = getelementptr inbounds nuw %struct.dt_gui_presets_edit_dialog_t, ptr %38, i32 0, i32 4
  store i32 %37, ptr %39, align 8, !tbaa !106
  %40 = load ptr, ptr %10, align 8, !tbaa !83
  %41 = getelementptr inbounds nuw %struct.dt_iop_module_t, ptr %40, i32 0, i32 57
  %42 = getelementptr inbounds [20 x i8], ptr %41, i64 0, i64 0
  %43 = call noalias ptr @g_strdup(ptr noundef %42)
  %44 = load ptr, ptr %17, align 8, !tbaa !87
  %45 = getelementptr inbounds nuw %struct.dt_gui_presets_edit_dialog_t, ptr %44, i32 0, i32 2
  store ptr %43, ptr %45, align 8, !tbaa !107
  %46 = load ptr, ptr %11, align 8, !tbaa !17
  %47 = load ptr, ptr %17, align 8, !tbaa !87
  %48 = getelementptr inbounds nuw %struct.dt_gui_presets_edit_dialog_t, ptr %47, i32 0, i32 27
  store ptr %46, ptr %48, align 8, !tbaa !108
  %49 = load ptr, ptr %12, align 8, !tbaa !17
  %50 = load ptr, ptr %17, align 8, !tbaa !87
  %51 = getelementptr inbounds nuw %struct.dt_gui_presets_edit_dialog_t, ptr %50, i32 0, i32 28
  store ptr %49, ptr %51, align 8, !tbaa !109
  %52 = load ptr, ptr %16, align 8, !tbaa !85
  %53 = load ptr, ptr %17, align 8, !tbaa !87
  %54 = getelementptr inbounds nuw %struct.dt_gui_presets_edit_dialog_t, ptr %53, i32 0, i32 0
  store ptr %52, ptr %54, align 8, !tbaa !110
  %55 = load ptr, ptr %17, align 8, !tbaa !87
  %56 = load i32, ptr %13, align 4, !tbaa !13
  %57 = load i32, ptr %14, align 4, !tbaa !13
  %58 = load i32, ptr %15, align 4, !tbaa !13
  call void @_presets_show_edit_dialog(ptr noundef %55, i32 noundef %56, i32 noundef %57, i32 noundef %58)
  call void @llvm.lifetime.end.p0(i64 8, ptr %17) #11
  ret void
}