; Function Attrs: nounwind uwtable
define void @dt_gui_presets_show_iop_edit_dialog(ptr noundef %0, ptr noundef %1, ptr noundef %2, ptr noundef %3, i32 noundef %4, i32 noundef %5, i32 noundef %6, ptr noundef %7) local_unnamed_addr #0 {
  %9 = tail call noalias dereferenceable_or_null(264) ptr @g_malloc0(i64 noundef 264) #19
  %10 = getelementptr inbounds nuw i8, ptr %9, i64 200
  store i32 -1, ptr %10, align 8, !tbaa !62
  %11 = tail call noalias ptr @g_strdup(ptr noundef %0) #16
  %12 = getelementptr inbounds nuw i8, ptr %9, i64 192
  store ptr %11, ptr %12, align 8, !tbaa !69
  %13 = getelementptr inbounds nuw i8, ptr %9, i64 8
  store ptr %1, ptr %13, align 8, !tbaa !70
  %14 = getelementptr inbounds nuw i8, ptr %1, i64 456
  %15 = tail call noalias ptr @g_strdup(ptr noundef nonnull %14) #16
  %16 = getelementptr inbounds nuw i8, ptr %9, i64 24
  store ptr %15, ptr %16, align 8, !tbaa !71
  %17 = getelementptr inbounds nuw i8, ptr %1, i64 8
  %18 = load ptr, ptr %17, align 8, !tbaa !72
  %19 = tail call i32 (...) %18() #16
  %20 = getelementptr inbounds nuw i8, ptr %9, i64 32
  store i32 %19, ptr %20, align 8, !tbaa !83
  %21 = tail call noalias ptr @g_strdup(ptr noundef nonnull %14) #16
  %22 = getelementptr inbounds nuw i8, ptr %9, i64 16
  store ptr %21, ptr %22, align 8, !tbaa !84
  %23 = getelementptr inbounds nuw i8, ptr %9, i64 248
  store ptr %2, ptr %23, align 8, !tbaa !85
  %24 = getelementptr inbounds nuw i8, ptr %9, i64 256
  store ptr %3, ptr %24, align 8, !tbaa !86
  store ptr %7, ptr %9, align 8, !tbaa !87
  tail call fastcc void @_presets_show_edit_dialog(ptr noundef nonnull %9, i32 noundef %4, i32 noundef %5, i32 noundef %6)
  ret void
}